target datalayout = "e-m:e-p270:32:32-p271:32:32-p272:64:64-i64:64-i128:128-f80:128-n8:16:32:64-S128"
target triple = "x86_64-pc-linux-gnu"

%struct.Abc_Ntk_t_ = type { i32, i32, ptr, ptr, ptr, ptr, ptr, ptr, ptr, ptr, ptr, ptr, ptr, [11 x i32], i32, i32, i32, i32, ptr, i32, ptr, ptr, i32, i32, i32, double, i32, %struct.Vec_Int_t_, ptr, ptr, ptr, ptr, ptr, float, i32, ptr, ptr, ptr, ptr, ptr, ptr, ptr, ptr, ptr, ptr, ptr, ptr, ptr, ptr, ptr, ptr, ptr, ptr, ptr, ptr, ptr }
%struct.Vec_Int_t_ = type { i32, i32, ptr }
%struct.Vec_Ptr_t_ = type { i32, i32, ptr }
%struct.Abc_Obj_t_ = type { ptr, ptr, i32, i32, %struct.Vec_Int_t_, %struct.Vec_Int_t_, %union.anon, %union.anon.0 }
%union.anon = type { ptr }
%union.anon.0 = type { ptr }

@.str.1 = private unnamed_addr constant [13 x i8] c"%d = %d     \00", align 1
@.str.2 = private unnamed_addr constant [14 x i8] c"c%d = %d     \00", align 1
@.str.3 = private unnamed_addr constant [13 x i8] c"i%d = %d    \00", align 1
@.str.4 = private unnamed_addr constant [2 x i8] c"\0A\00", align 1

; Function Attrs: nounwind uwtable
define internal ptr @Vec_PtrEntry(ptr noundef %0, i32 noundef %1) #0 {
  %3 = alloca ptr, align 8
  %4 = alloca i32, align 4
  store ptr %0, ptr %3, align 8
  store i32 %1, ptr %4, align 4
  %5 = load ptr, ptr %3, align 8
  %6 = getelementptr inbounds %struct.Vec_Ptr_t_, ptr %5, i32 0, i32 2
  %7 = load ptr, ptr %6, align 8
  %8 = load i32, ptr %4, align 4
  %9 = sext i32 %8 to i64
  %10 = getelementptr inbounds ptr, ptr %7, i64 %9
  %11 = load ptr, ptr %10, align 8
  ret ptr %11
}

; Function Attrs: nounwind uwtable
define internal i32 @Vec_PtrSize(ptr noundef %0) #0 {
  %2 = alloca ptr, align 8
  store ptr %0, ptr %2, align 8
  %3 = load ptr, ptr %2, align 8
  %4 = getelementptr inbounds %struct.Vec_Ptr_t_, ptr %3, i32 0, i32 1
  %5 = load i32, ptr %4, align 4
  ret i32 %5
}

; Function Attrs: nounwind uwtable
define internal i32 @Abc_ObjIsCi(ptr noundef %0) #0 {
  %2 = alloca ptr, align 8
  store ptr %0, ptr %2, align 8
  %3 = load ptr, ptr %2, align 8
  %4 = getelementptr inbounds %struct.Abc_Obj_t_, ptr %3, i32 0, i32 3
  %5 = load i32, ptr %4, align 4
  %6 = and i32 %5, 15
  %7 = icmp eq i32 %6, 2
  br i1 %7, label %14, label %8

8:                                                ; preds = %1
  %9 = load ptr, ptr %2, align 8
  %10 = getelementptr inbounds %struct.Abc_Obj_t_, ptr %9, i32 0, i32 3
  %11 = load i32, ptr %10, align 4
  %12 = and i32 %11, 15
  %13 = icmp eq i32 %12, 5
  br label %14

14:                                               ; preds = %8, %1
  %15 = phi i1 [ true, %1 ], [ %13, %8 ]
  %16 = zext i1 %15 to i32
  ret i32 %16
}

; Function Attrs: nounwind uwtable
define internal ptr @Abc_ObjFanin0(ptr noundef %0) #0 {
  %2 = alloca ptr, align 8
  store ptr %0, ptr %2, align 8
  %3 = load ptr, ptr %2, align 8
  %4 = getelementptr inbounds %struct.Abc_Obj_t_, ptr %3, i32 0, i32 0
  %5 = load ptr, ptr %4, align 8
  %6 = getelementptr inbounds %struct.Abc_Ntk_t_, ptr %5, i32 0, i32 5
  %7 = load ptr, ptr %6, align 8
  %8 = getelementptr inbounds %struct.Vec_Ptr_t_, ptr %7, i32 0, i32 2
  %9 = load ptr, ptr %8, align 8
  %10 = load ptr, ptr %2, align 8
  %11 = getelementptr inbounds %struct.Abc_Obj_t_, ptr %10, i32 0, i32 4
  %12 = getelementptr inbounds %struct.Vec_Int_t_, ptr %11, i32 0, i32 2
  %13 = load ptr, ptr %12, align 8
  %14 = getelementptr inbounds i32, ptr %13, i64 0
  %15 = load i32, ptr %14, align 4
  %16 = sext i32 %15 to i64
  %17 = getelementptr inbounds ptr, ptr %9, i64 %16
  %18 = load ptr, ptr %17, align 8
  ret ptr %18
}

; Function Attrs: nounwind uwtable
define internal i32 @Abc_ObjFaninC0(ptr noundef %0) #0 {
  %2 = alloca ptr, align 8
  store ptr %0, ptr %2, align 8
  %3 = load ptr, ptr %2, align 8
  %4 = getelementptr inbounds %struct.Abc_Obj_t_, ptr %3, i32 0, i32 3
  %5 = load i32, ptr %4, align 4
  %6 = lshr i32 %5, 10
  %7 = and i32 %6, 1
  ret i32 %7
}

; Function Attrs: nounwind uwtable
define internal i32 @Abc_ObjFaninId0(ptr noundef %0) #0 {
  %2 = alloca ptr, align 8
  store ptr %0, ptr %2, align 8
  %3 = load ptr, ptr %2, align 8
  %4 = getelementptr inbounds %struct.Abc_Obj_t_, ptr %3, i32 0, i32 4
  %5 = getelementptr inbounds %struct.Vec_Int_t_, ptr %4, i32 0, i32 2
  %6 = load ptr, ptr %5, align 8
  %7 = getelementptr inbounds i32, ptr %6, i64 0
  %8 = load i32, ptr %7, align 4
  ret i32 %8
}

; Function Attrs: nounwind uwtable
define internal ptr @Abc_NtkCo(ptr noundef %0, i32 noundef %1) #0 {
  %3 = alloca ptr, align 8
  %4 = alloca i32, align 4
  store ptr %0, ptr %3, align 8
  store i32 %1, ptr %4, align 4
  %5 = load ptr, ptr %3, align 8
  %6 = getelementptr inbounds %struct.Abc_Ntk_t_, ptr %5, i32 0, i32 9
  %7 = load ptr, ptr %6, align 8
  %8 = load i32, ptr %4, align 4
  %9 = call ptr @Vec_PtrEntry(ptr noundef %7, i32 noundef %8)
  ret ptr %9
}

; Function Attrs: nounwind uwtable
define internal i32 @Abc_NtkCoNum(ptr noundef %0) #0 {
  %2 = alloca ptr, align 8
  store ptr %0, ptr %2, align 8
  %3 = load ptr, ptr %2, align 8
  %4 = getelementptr inbounds %struct.Abc_Ntk_t_, ptr %3, i32 0, i32 9
  %5 = load ptr, ptr %4, align 8
  %6 = call i32 @Vec_PtrSize(ptr noundef %5)
  ret i32 %6
}

; Function Attrs: nounwind uwtable
define internal i32 @Abc_NtkObjNumMax(ptr noundef %0) #0 {
  %2 = alloca ptr, align 8
  store ptr %0, ptr %2, align 8
  %3 = load ptr, ptr %2, align 8
  %4 = getelementptr inbounds %struct.Abc_Ntk_t_, ptr %3, i32 0, i32 5
  %5 = load ptr, ptr %4, align 8
  %6 = call i32 @Vec_PtrSize(ptr noundef %5)
  ret i32 %6
}

; Function Attrs: nounwind uwtable
define void @Abc_NtkLogicMakeSimpleCosTest(ptr noundef %0, i32 noundef %1) #0 {
  %3 = alloca ptr, align 8
  %4 = alloca i32, align 4
  %5 = alloca i32, align 4
  %6 = alloca ptr, align 8
  %7 = alloca ptr, align 8
  %8 = alloca i32, align 4
  %9 = alloca [4 x i32], align 16
  %10 = alloca [2 x i32], align 4
  %11 = alloca [2 x i32], align 4
  store ptr %0, ptr %3, align 8
  store i32 %1, ptr %4, align 4
  %12 = load ptr, ptr %3, align 8
  %13 = call i32 @Abc_NtkObjNumMax(ptr noundef %12)
  store i32 %13, ptr %5, align 4
  %14 = load i32, ptr %5, align 4
  %15 = sext i32 %14 to i64
  %16 = call noalias ptr @calloc(i64 noundef %15, i64 noundef 4) #13
  store ptr %16, ptr %6, align 8
  call void @llvm.memset.p0.i64(ptr align 16 %9, i8 0, i64 16, i1 false)
  call void @llvm.memset.p0.i64(ptr align 4 %10, i8 0, i64 8, i1 false)
  call void @llvm.memset.p0.i64(ptr align 4 %11, i8 0, i64 8, i1 false)
  store i32 0, ptr %8, align 4
  br label %17

17:                                               ; preds = %62, %2
  %18 = load i32, ptr %8, align 4
  %19 = load ptr, ptr %3, align 8
  %20 = call i32 @Abc_NtkCoNum(ptr noundef %19)
  %21 = icmp slt i32 %18, %20
  br i1 %21, label %22, label %26

22:                                               ; preds = %17
  %23 = load ptr, ptr %3, align 8
  %24 = load i32, ptr %8, align 4
  %25 = call ptr @Abc_NtkCo(ptr noundef %23, i32 noundef %24)
  store ptr %25, ptr %7, align 8
  br label %26

26:                                               ; preds = %22, %17
  %27 = phi i1 [ false, %17 ], [ true, %22 ]
  br i1 %27, label %28, label %65

28:                                               ; preds = %26
  %29 = load ptr, ptr %7, align 8
  %30 = call i32 @Abc_ObjFaninId0(ptr noundef %29)
  %31 = icmp eq i32 %30, 0
  br i1 %31, label %32, label %39

32:                                               ; preds = %28
  %33 = load ptr, ptr %7, align 8
  %34 = call i32 @Abc_ObjFaninC0(ptr noundef %33)
  %35 = sext i32 %34 to i64
  %36 = getelementptr inbounds [2 x i32], ptr %10, i64 0, i64 %35
  %37 = load i32, ptr %36, align 4
  %38 = add nsw i32 %37, 1
  store i32 %38, ptr %36, align 4
  br label %39

39:                                               ; preds = %32, %28
  %40 = load ptr, ptr %7, align 8
  %41 = call ptr @Abc_ObjFanin0(ptr noundef %40)
  %42 = call i32 @Abc_ObjIsCi(ptr noundef %41)
  %43 = icmp ne i32 %42, 0
  br i1 %43, label %44, label %51

44:                                               ; preds = %39
  %45 = load ptr, ptr %7, align 8
  %46 = call i32 @Abc_ObjFaninC0(ptr noundef %45)
  %47 = sext i32 %46 to i64
  %48 = getelementptr inbounds [2 x i32], ptr %11, i64 0, i64 %47
  %49 = load i32, ptr %48, align 4
  %50 = add nsw i32 %49, 1
  store i32 %50, ptr %48, align 4
  br label %51

51:                                               ; preds = %44, %39
  %52 = load ptr, ptr %7, align 8
  %53 = call i32 @Abc_ObjFaninC0(ptr noundef %52)
  %54 = shl i32 1, %53
  %55 = load ptr, ptr %6, align 8
  %56 = load ptr, ptr %7, align 8
  %57 = call i32 @Abc_ObjFaninId0(ptr noundef %56)
  %58 = sext i32 %57 to i64
  %59 = getelementptr inbounds i32, ptr %55, i64 %58
  %60 = load i32, ptr %59, align 4
  %61 = or i32 %60, %54
  store i32 %61, ptr %59, align 4
  br label %62

62:                                               ; preds = %51
  %63 = load i32, ptr %8, align 4
  %64 = add nsw i32 %63, 1
  store i32 %64, ptr %8, align 4
  br label %17, !llvm.loop !52

65:                                               ; preds = %26
  store i32 0, ptr %8, align 4
  br label %66

66:                                               ; preds = %80, %65
  %67 = load i32, ptr %8, align 4
  %68 = load i32, ptr %5, align 4
  %69 = icmp slt i32 %67, %68
  br i1 %69, label %70, label %83

70:                                               ; preds = %66
  %71 = load ptr, ptr %6, align 8
  %72 = load i32, ptr %8, align 4
  %73 = sext i32 %72 to i64
  %74 = getelementptr inbounds i32, ptr %71, i64 %73
  %75 = load i32, ptr %74, align 4
  %76 = zext i32 %75 to i64
  %77 = getelementptr inbounds [4 x i32], ptr %9, i64 0, i64 %76
  %78 = load i32, ptr %77, align 4
  %79 = add nsw i32 %78, 1
  store i32 %79, ptr %77, align 4
  br label %80

80:                                               ; preds = %70
  %81 = load i32, ptr %8, align 4
  %82 = add nsw i32 %81, 1
  store i32 %82, ptr %8, align 4
  br label %66, !llvm.loop !53

83:                                               ; preds = %66
  store i32 0, ptr %8, align 4
  br label %84

84:                                               ; preds = %94, %83
  %85 = load i32, ptr %8, align 4
  %86 = icmp slt i32 %85, 4
  br i1 %86, label %87, label %97

87:                                               ; preds = %84
  %88 = load i32, ptr %8, align 4
  %89 = load i32, ptr %8, align 4
  %90 = sext i32 %89 to i64
  %91 = getelementptr inbounds [4 x i32], ptr %9, i64 0, i64 %90
  %92 = load i32, ptr %91, align 4
  %93 = call i32 (ptr, ...) @printf(ptr noundef @.str.1, i32 noundef %88, i32 noundef %92)
  br label %94

94:                                               ; preds = %87
  %95 = load i32, ptr %8, align 4
  %96 = add nsw i32 %95, 1
  store i32 %96, ptr %8, align 4
  br label %84, !llvm.loop !54

97:                                               ; preds = %84
  store i32 0, ptr %8, align 4
  br label %98

98:                                               ; preds = %108, %97
  %99 = load i32, ptr %8, align 4
  %100 = icmp slt i32 %99, 2
  br i1 %100, label %101, label %111

101:                                              ; preds = %98
  %102 = load i32, ptr %8, align 4
  %103 = load i32, ptr %8, align 4
  %104 = sext i32 %103 to i64
  %105 = getelementptr inbounds [2 x i32], ptr %10, i64 0, i64 %104
  %106 = load i32, ptr %105, align 4
  %107 = call i32 (ptr, ...) @printf(ptr noundef @.str.2, i32 noundef %102, i32 noundef %106)
  br label %108

108:                                              ; preds = %101
  %109 = load i32, ptr %8, align 4
  %110 = add nsw i32 %109, 1
  store i32 %110, ptr %8, align 4
  br label %98, !llvm.loop !55

111:                                              ; preds = %98
  store i32 0, ptr %8, align 4
  br label %112

112:                                              ; preds = %122, %111
  %113 = load i32, ptr %8, align 4
  %114 = icmp slt i32 %113, 2
  br i1 %114, label %115, label %125

115:                                              ; preds = %112
  %116 = load i32, ptr %8, align 4
  %117 = load i32, ptr %8, align 4
  %118 = sext i32 %117 to i64
  %119 = getelementptr inbounds [2 x i32], ptr %11, i64 0, i64 %118
  %120 = load i32, ptr %119, align 4
  %121 = call i32 (ptr, ...) @printf(ptr noundef @.str.3, i32 noundef %116, i32 noundef %120)
  br label %122

122:                                              ; preds = %115
  %123 = load i32, ptr %8, align 4
  %124 = add nsw i32 %123, 1
  store i32 %124, ptr %8, align 4
  br label %112, !llvm.loop !56

125:                                              ; preds = %112
  %126 = call i32 (ptr, ...) @printf(ptr noundef @.str.4)
  %127 = load ptr, ptr %6, align 8
  %128 = icmp ne ptr %127, null
  br i1 %128, label %129, label %131

129:                                              ; preds = %125
  %130 = load ptr, ptr %6, align 8
  call void @free(ptr noundef %130) #11
  store ptr null, ptr %6, align 8
  br label %132

131:                                              ; preds = %125
  br label %132

132:                                              ; preds = %131, %129
  ret void
}