; Function Attrs: nounwind uwtable
define void @Abc_NtkLogicMakeSimpleCosTest(ptr noundef readonly captures(none) %0, i32 noundef %1) local_unnamed_addr #0 {
  %3 = alloca [4 x i32], align 16
  %4 = alloca [2 x i32], align 8
  %5 = alloca [2 x i32], align 8
  %6 = getelementptr i8, ptr %0, i64 32
  %.val40 = load ptr, ptr %6, align 8
  %7 = getelementptr i8, ptr %.val40, i64 4
  %.val40.val = load i32, ptr %7, align 4
  %8 = sext i32 %.val40.val to i64
  %9 = tail call noalias ptr @calloc(i64 noundef %8, i64 noundef 4) #32
  call void @llvm.memset.p0.i64(ptr noundef nonnull align 16 dereferenceable(16) %3, i8 0, i64 16, i1 false)
  store i64 0, ptr %4, align 8
  store i64 0, ptr %5, align 8
  %10 = getelementptr i8, ptr %0, i64 64
  %.val42 = load ptr, ptr %10, align 8
  %11 = getelementptr i8, ptr %.val42, i64 4
  %.val42.val = load i32, ptr %11, align 4
  %12 = icmp sgt i32 %.val42.val, 0
  br i1 %12, label %.lr.ph, label %.critedge.preheader

.lr.ph:                                           ; preds = %2
  %13 = getelementptr i8, ptr %.val42, i64 8
  %.val43.val = load ptr, ptr %13, align 8
  %wide.trip.count = zext nneg i32 %.val42.val to i64
  br label %15

.critedge.preheader:                              ; preds = %44, %2
  %14 = icmp sgt i32 %.val40.val, 0
  br i1 %14, label %.critedge.preheader54, label %.preheader47.preheader

.critedge.preheader54:                            ; preds = %.critedge.preheader
  %wide.trip.count59 = zext nneg i32 %.val40.val to i64
  br label %.critedge

15:                                               ; preds = %.lr.ph, %44
  %indvars.iv = phi i64 [ 0, %.lr.ph ], [ %indvars.iv.next, %44 ]
  %16 = getelementptr inbounds nuw ptr, ptr %.val43.val, i64 %indvars.iv
  %17 = load ptr, ptr %16, align 8
  %18 = getelementptr i8, ptr %17, i64 32
  %.val38 = load ptr, ptr %18, align 8
  %.val38.val = load i32, ptr %.val38, align 4
  %19 = icmp eq i32 %.val38.val, 0
  br i1 %19, label %20, label %28

20:                                               ; preds = %15
  %21 = getelementptr i8, ptr %17, i64 20
  %.val35 = load i32, ptr %21, align 4
  %22 = lshr i32 %.val35, 10
  %23 = and i32 %22, 1
  %24 = zext nneg i32 %23 to i64
  %25 = getelementptr inbounds nuw [2 x i32], ptr %4, i64 0, i64 %24
  %26 = load i32, ptr %25, align 4
  %27 = add nsw i32 %26, 1
  store i32 %27, ptr %25, align 4
  br label %28

28:                                               ; preds = %20, %15
  %.val36 = load ptr, ptr %17, align 8
  %29 = getelementptr i8, ptr %.val36, i64 32
  %.val36.val = load ptr, ptr %29, align 8
  %30 = getelementptr i8, ptr %.val36.val, i64 8
  %.val36.val.val = load ptr, ptr %30, align 8
  %31 = sext i32 %.val38.val to i64
  %32 = getelementptr inbounds ptr, ptr %.val36.val.val, i64 %31
  %33 = load ptr, ptr %32, align 8
  %34 = getelementptr i8, ptr %33, i64 20
  %.val41 = load i32, ptr %34, align 4
  %35 = and i32 %.val41, 15
  switch i32 %35, label %._crit_edge [
    i32 5, label %36
    i32 2, label %36
  ]

._crit_edge:                                      ; preds = %28
  %.phi.trans.insert = getelementptr i8, ptr %17, i64 20
  %.val.pre = load i32, ptr %.phi.trans.insert, align 4
  %.pre = lshr i32 %.val.pre, 10
  %.pre72 = and i32 %.pre, 1
  br label %44

36:                                               ; preds = %28, %28
  %37 = getelementptr i8, ptr %17, i64 20
  %.val34 = load i32, ptr %37, align 4
  %38 = lshr i32 %.val34, 10
  %39 = and i32 %38, 1
  %40 = zext nneg i32 %39 to i64
  %41 = getelementptr inbounds nuw [2 x i32], ptr %5, i64 0, i64 %40
  %42 = load i32, ptr %41, align 4
  %43 = add nsw i32 %42, 1
  store i32 %43, ptr %41, align 4
  br label %44

44:                                               ; preds = %._crit_edge, %36
  %.pre-phi73 = phi i32 [ %.pre72, %._crit_edge ], [ %39, %36 ]
  %45 = shl nuw nsw i32 1, %.pre-phi73
  %46 = getelementptr inbounds i32, ptr %9, i64 %31
  %47 = load i32, ptr %46, align 4
  %48 = or i32 %45, %47
  store i32 %48, ptr %46, align 4
  %indvars.iv.next = add nuw nsw i64 %indvars.iv, 1
  %exitcond.not = icmp eq i64 %indvars.iv.next, %wide.trip.count
  br i1 %exitcond.not, label %.critedge.preheader, label %15, !llvm.loop !53

.critedge:                                        ; preds = %.critedge.preheader54, %.critedge
  %indvars.iv56 = phi i64 [ 0, %.critedge.preheader54 ], [ %indvars.iv.next57, %.critedge ]
  %49 = getelementptr inbounds nuw i32, ptr %9, i64 %indvars.iv56
  %50 = load i32, ptr %49, align 4
  %51 = zext i32 %50 to i64
  %52 = getelementptr inbounds nuw [4 x i32], ptr %3, i64 0, i64 %51
  %53 = load i32, ptr %52, align 4
  %54 = add nsw i32 %53, 1
  store i32 %54, ptr %52, align 4
  %indvars.iv.next57 = add nuw nsw i64 %indvars.iv56, 1
  %exitcond60.not = icmp eq i64 %indvars.iv.next57, %wide.trip.count59
  br i1 %exitcond60.not, label %.preheader47.preheader, label %.critedge, !llvm.loop !54

.preheader47.preheader:                           ; preds = %.critedge, %.critedge.preheader
  br label %.preheader47

.preheader47:                                     ; preds = %.preheader47.preheader, %.preheader47
  %indvars.iv61 = phi i64 [ %indvars.iv.next62, %.preheader47 ], [ 0, %.preheader47.preheader ]
  %55 = getelementptr inbounds nuw [4 x i32], ptr %3, i64 0, i64 %indvars.iv61
  %56 = load i32, ptr %55, align 4
  %57 = trunc nuw nsw i64 %indvars.iv61 to i32
  %58 = tail call i32 (ptr, ...) @printf(ptr noundef nonnull dereferenceable(1) @.str.1, i32 noundef %57, i32 noundef %56)
  %indvars.iv.next62 = add nuw nsw i64 %indvars.iv61, 1
  %exitcond64.not = icmp eq i64 %indvars.iv.next62, 4
  br i1 %exitcond64.not, label %.preheader46, label %.preheader47, !llvm.loop !55

.preheader46:                                     ; preds = %.preheader47
  %59 = load i32, ptr %4, align 8
  %60 = tail call i32 (ptr, ...) @printf(ptr noundef nonnull dereferenceable(1) @.str.2, i32 noundef 0, i32 noundef %59)
  %61 = getelementptr inbounds nuw i8, ptr %4, i64 4
  %62 = load i32, ptr %61, align 4
  %63 = tail call i32 (ptr, ...) @printf(ptr noundef nonnull dereferenceable(1) @.str.2, i32 noundef 1, i32 noundef %62)
  %64 = load i32, ptr %5, align 8
  %65 = tail call i32 (ptr, ...) @printf(ptr noundef nonnull dereferenceable(1) @.str.3, i32 noundef 0, i32 noundef %64)
  %66 = getelementptr inbounds nuw i8, ptr %5, i64 4
  %67 = load i32, ptr %66, align 4
  %68 = tail call i32 (ptr, ...) @printf(ptr noundef nonnull dereferenceable(1) @.str.3, i32 noundef 1, i32 noundef %67)
  %putchar = tail call i32 @putchar(i32 10)
  %.not = icmp eq ptr %9, null
  br i1 %.not, label %70, label %69

69:                                               ; preds = %.preheader46
  tail call void @free(ptr noundef nonnull %9) #28
  br label %70

70:                                               ; preds = %.preheader46, %69
  ret void
}